target datalayout = "e-m:e-p270:32:32-p271:32:32-p272:64:64-i64:64-i128:128-f80:128-n8:16:32:64-S128"
target triple = "x86_64-unknown-linux-gnu"

%"class.cvc5::internal::theory::quantifiers::inst::CandidateGenerator" = type { %"class.cvc5::internal::EnvObj", ptr, ptr }
%"class.cvc5::internal::EnvObj" = type { ptr, ptr }

; Function Attrs: mustprogress uwtable
define hidden void @_ZN4cvc58internal6theory11quantifiers4inst18CandidateGeneratorC2ERNS0_3EnvERNS2_16QuantifiersStateERNS2_12TermRegistryE(ptr noundef nonnull align 8 dereferenceable(32) %this, ptr noundef nonnull align 8 dereferenceable(576) %env, ptr noundef nonnull align 8 dereferenceable(248) %qs, ptr noundef nonnull align 8 dereferenceable(208) %tr) unnamed_addr #4 align 2 {
entry:
  %this.addr = alloca ptr, align 8
  %env.addr = alloca ptr, align 8
  %qs.addr = alloca ptr, align 8
  %tr.addr = alloca ptr, align 8
  store ptr %this, ptr %this.addr, align 8
  store ptr %env, ptr %env.addr, align 8
  store ptr %qs, ptr %qs.addr, align 8
  store ptr %tr, ptr %tr.addr, align 8
  %this1 = load ptr, ptr %this.addr, align 8
  %0 = load ptr, ptr %env.addr, align 8
  call void @_ZN4cvc58internal6EnvObjC2ERNS0_3EnvE(ptr noundef nonnull align 8 dereferenceable(16) %this1, ptr noundef nonnull align 8 dereferenceable(576) %0)
  store ptr getelementptr inbounds ({ [8 x ptr] }, ptr @_ZTVN4cvc58internal6theory11quantifiers4inst18CandidateGeneratorE, i32 0, i32 0, i32 2), ptr %this1, align 8
  %d_qs = getelementptr inbounds %"class.cvc5::internal::theory::quantifiers::inst::CandidateGenerator", ptr %this1, i32 0, i32 1
  %1 = load ptr, ptr %qs.addr, align 8
  store ptr %1, ptr %d_qs, align 8
  %d_treg = getelementptr inbounds %"class.cvc5::internal::theory::quantifiers::inst::CandidateGenerator", ptr %this1, i32 0, i32 2
  %2 = load ptr, ptr %tr.addr, align 8
  store ptr %2, ptr %d_treg, align 8
  ret void
}