; Function Attrs: mustprogress uwtable
define hidden void @_ZN4cvc58internal6theory11quantifiers4inst18CandidateGeneratorC2ERNS0_3EnvERNS2_16QuantifiersStateERNS2_12TermRegistryE(ptr noundef nonnull align 8 dereferenceable(32) %this, ptr noundef nonnull align 8 dereferenceable(576) %env, ptr noundef nonnull align 8 dereferenceable(248) %qs, ptr noundef nonnull align 8 dereferenceable(208) %tr) unnamed_addr #3 align 2 {
entry:
  tail call void @_ZN4cvc58internal6EnvObjC2ERNS0_3EnvE(ptr noundef nonnull align 8 dereferenceable(16) %this, ptr noundef nonnull align 8 dereferenceable(576) %env)
  store ptr getelementptr inbounds ({ [8 x ptr] }, ptr @_ZTVN4cvc58internal6theory11quantifiers4inst18CandidateGeneratorE, i64 0, i32 0, i64 2), ptr %this, align 8
  %d_qs = getelementptr inbounds i8, ptr %this, i64 16
  store ptr %qs, ptr %d_qs, align 8
  %d_treg = getelementptr inbounds i8, ptr %this, i64 24
  store ptr %tr, ptr %d_treg, align 8
  ret void
}